; Function Attrs: mustprogress uwtable
define void @_ZN7rocksdb32SstPartitionerFixedPrefixFactoryC2Em(ptr noundef nonnull align 8 dereferenceable(40) %this, i64 noundef %len) unnamed_addr #3 align 2 personality ptr @__gxx_personality_v0 {
entry:
  %ref.tmp = alloca %"class.std::__cxx11::basic_string", align 8
  %ref.tmp2 = alloca %"class.std::allocator.2", align 1
  %options_.i.i.i = getelementptr inbounds i8, ptr %this, i64 8
  tail call void @llvm.memset.p0.i64(ptr noundef nonnull align 8 dereferenceable(24) %options_.i.i.i, i8 0, i64 24, i1 false)
  store ptr getelementptr inbounds ({ [22 x ptr] }, ptr @_ZTVN7rocksdb32SstPartitionerFixedPrefixFactoryE, i64 0, i32 0, i64 2), ptr %this, align 8
  %len_ = getelementptr inbounds i8, ptr %this, i64 32
  store i64 %len, ptr %len_, align 8
  call void @_ZNSaIcEC1Ev(ptr noundef nonnull align 1 dereferenceable(1) %ref.tmp2) #21
  %call.i2 = invoke noundef ptr @_ZNSt7__cxx1112basic_stringIcSt11char_traitsIcESaIcEE13_M_local_dataEv(ptr noundef nonnull align 8 dereferenceable(32) %ref.tmp)
          to label %call.i.noexc unwind label %lpad

call.i.noexc:                                     ; preds = %entry
  invoke void @_ZNSt7__cxx1112basic_stringIcSt11char_traitsIcESaIcEE12_Alloc_hiderC1EPcRKS3_(ptr noundef nonnull align 8 dereferenceable(8) %ref.tmp, ptr noundef %call.i2, ptr noundef nonnull align 1 dereferenceable(1) %ref.tmp2)
          to label %.noexc unwind label %lpad

.noexc:                                           ; preds = %call.i.noexc
  invoke void @_ZNSt7__cxx1112basic_stringIcSt11char_traitsIcESaIcEE12_M_constructIPKcEEvT_S8_St20forward_iterator_tag(ptr noundef nonnull align 8 dereferenceable(32) %ref.tmp, ptr noundef nonnull @.str.1, ptr noundef nonnull getelementptr inbounds ([7 x i8], ptr @.str.1, i64 0, i64 6))
          to label %invoke.cont unwind label %lpad.i

lpad.i:                                           ; preds = %.noexc
  %0 = landingpad { ptr, i32 }
          cleanup
  call void @_ZNSaIcED2Ev(ptr noundef nonnull align 1 dereferenceable(1) %ref.tmp) #21
  br label %ehcleanup

invoke.cont:                                      ; preds = %.noexc
  invoke void @_ZN7rocksdb12Configurable15RegisterOptionsERKNSt7__cxx1112basic_stringIcSt11char_traitsIcESaIcEEEPvPKSt13unordered_mapIS6_NS_14OptionTypeInfoESt4hashIS6_ESt8equal_toIS6_ESaISt4pairIS7_SB_EEE(ptr noundef nonnull align 8 dereferenceable(32) %this, ptr noundef nonnull align 8 dereferenceable(32) %ref.tmp, ptr noundef nonnull %len_, ptr noundef nonnull @_ZN7rocksdbL26sst_fixed_prefix_type_infoB5cxx11E)
          to label %invoke.cont5 unwind label %lpad4

invoke.cont5:                                     ; preds = %invoke.cont
  call void @_ZNSt7__cxx1112basic_stringIcSt11char_traitsIcESaIcEED1Ev(ptr noundef nonnull align 8 dereferenceable(32) %ref.tmp) #21
  call void @_ZNSaIcED1Ev(ptr noundef nonnull align 1 dereferenceable(1) %ref.tmp2) #21
  ret void

lpad:                                             ; preds = %call.i.noexc, %entry
  %1 = landingpad { ptr, i32 }
          cleanup
  br label %ehcleanup

lpad4:                                            ; preds = %invoke.cont
  %2 = landingpad { ptr, i32 }
          cleanup
  call void @_ZNSt7__cxx1112basic_stringIcSt11char_traitsIcESaIcEED1Ev(ptr noundef nonnull align 8 dereferenceable(32) %ref.tmp) #21
  br label %ehcleanup

ehcleanup:                                        ; preds = %lpad, %lpad.i, %lpad4
  %.pn = phi { ptr, i32 } [ %2, %lpad4 ], [ %1, %lpad ], [ %0, %lpad.i ]
  call void @_ZNSaIcED1Ev(ptr noundef nonnull align 1 dereferenceable(1) %ref.tmp2) #21
  call void @_ZN7rocksdb21SstPartitionerFactoryD2Ev(ptr noundef nonnull align 8 dereferenceable(32) %this) #21
  resume { ptr, i32 } %.pn
}